; Function Attrs: nounwind uwtable
define hidden void @Wayland_DisplayUpdatePointerGrabs(ptr noundef readonly captures(address) %0, ptr noundef readnone captures(address) %1) local_unnamed_addr #0 {
  %3 = getelementptr inbounds nuw i8, ptr %0, i64 248
  %4 = getelementptr inbounds nuw i8, ptr %0, i64 256
  %.pn11 = load ptr, ptr %4, align 8
  %.not13 = icmp eq ptr %.pn11, %3
  br i1 %.not13, label %._crit_edge, label %.lr.ph

.lr.ph:                                           ; preds = %2
  %.012 = getelementptr inbounds i8, ptr %.pn11, i64 -40
  %.not10 = icmp eq ptr %1, null
  br i1 %.not10, label %.lr.ph.split.us, label %.lr.ph.split

.lr.ph.split.us:                                  ; preds = %.lr.ph, %.lr.ph.split.us
  %.015.us = phi ptr [ %.0.us, %.lr.ph.split.us ], [ %.012, %.lr.ph ]
  %.pn14.us = phi ptr [ %.pn.us, %.lr.ph.split.us ], [ %.pn11, %.lr.ph ]
  tail call void @Wayland_SeatUpdatePointerGrab(ptr noundef nonnull %.015.us)
  %5 = getelementptr inbounds nuw i8, ptr %.pn14.us, i64 8
  %.pn.us = load ptr, ptr %5, align 8
  %.0.us = getelementptr inbounds i8, ptr %.pn.us, i64 -40
  %.not.us = icmp eq ptr %.pn.us, %3
  br i1 %.not.us, label %._crit_edge, label %.lr.ph.split.us, !llvm.loop !20

.lr.ph.split:                                     ; preds = %.lr.ph, %10
  %.015 = phi ptr [ %.0, %10 ], [ %.012, %.lr.ph ]
  %.pn14 = phi ptr [ %.pn, %10 ], [ %.pn11, %.lr.ph ]
  %6 = getelementptr inbounds nuw i8, ptr %.pn14, i64 280
  %7 = load ptr, ptr %6, align 8
  %8 = icmp eq ptr %7, %1
  br i1 %8, label %9, label %10

9:                                                ; preds = %.lr.ph.split
  tail call void @Wayland_SeatUpdatePointerGrab(ptr noundef nonnull %.015)
  br label %10

10:                                               ; preds = %.lr.ph.split, %9
  %11 = getelementptr inbounds nuw i8, ptr %.pn14, i64 8
  %.pn = load ptr, ptr %11, align 8
  %.0 = getelementptr inbounds i8, ptr %.pn, i64 -40
  %.not = icmp eq ptr %.pn, %3
  br i1 %.not, label %._crit_edge, label %.lr.ph.split, !llvm.loop !20

._crit_edge:                                      ; preds = %10, %.lr.ph.split.us, %2
  ret void
}